; Function Attrs: nofree norecurse nosync nounwind memory(argmem: readwrite) uwtable
define internal void @idct_idct_4x4_add_c(ptr noundef captures(none) %0, i64 noundef %1, ptr noundef captures(none) %2, i32 noundef %3) #3 {
  %5 = alloca [16 x i32], align 16
  %6 = alloca [4 x i32], align 16
  call void @llvm.lifetime.start.p0(i64 64, ptr nonnull %5) #11
  call void @llvm.lifetime.start.p0(i64 16, ptr nonnull %6) #11
  %7 = lshr i64 %1, 1
  %8 = icmp eq i32 %3, 1
  br i1 %8, label %9, label %.preheader45

9:                                                ; preds = %4
  %10 = load i32, ptr %2, align 4, !tbaa !25
  %11 = sext i32 %10 to i64
  %12 = mul nsw i64 %11, 11585
  %13 = add nsw i64 %12, 8192
  %14 = lshr i64 %13, 14
  %15 = mul nuw i64 %14, 11585
  %16 = add nuw i64 %15, 8192
  %17 = lshr i64 %16, 14
  %18 = trunc i64 %17 to i32
  store i32 0, ptr %2, align 4, !tbaa !25
  %19 = add nsw i32 %18, 8
  %20 = ashr i32 %19, 4
  br label %.preheader

.preheader:                                       ; preds = %9, %30
  %.052 = phi i32 [ 0, %9 ], [ %32, %30 ]
  %.03651 = phi ptr [ %0, %9 ], [ %31, %30 ]
  br label %21

21:                                               ; preds = %.preheader, %21
  %indvars.iv63 = phi i64 [ 0, %.preheader ], [ %indvars.iv.next64, %21 ]
  %22 = mul nuw nsw i64 %7, %indvars.iv63
  %23 = getelementptr inbounds nuw i16, ptr %.03651, i64 %22
  %24 = load i16, ptr %23, align 2, !tbaa !8
  %25 = zext i16 %24 to i32
  %26 = add nsw i32 %20, %25
  %27 = tail call i32 @llvm.smax.i32(i32 %26, i32 0)
  %28 = tail call i32 @llvm.umin.i32(i32 %27, i32 4095)
  %29 = trunc nuw nsw i32 %28 to i16
  store i16 %29, ptr %23, align 2, !tbaa !8
  %indvars.iv.next64 = add nuw nsw i64 %indvars.iv63, 1
  %exitcond66.not = icmp eq i64 %indvars.iv.next64, 4
  br i1 %exitcond66.not, label %30, label %21, !llvm.loop !27

30:                                               ; preds = %21
  %31 = getelementptr inbounds nuw i8, ptr %.03651, i64 2
  %32 = add nuw nsw i32 %.052, 1
  %exitcond67.not = icmp eq i32 %32, 4
  br i1 %exitcond67.not, label %.loopexit, label %.preheader, !llvm.loop !28

.preheader45:                                     ; preds = %4, %.preheader45
  %indvars.iv = phi i64 [ %indvars.iv.next, %.preheader45 ], [ 0, %4 ]
  %33 = getelementptr inbounds nuw i32, ptr %2, i64 %indvars.iv
  %.idx = shl nuw nsw i64 %indvars.iv, 4
  %34 = getelementptr inbounds nuw i8, ptr %5, i64 %.idx
  %35 = load i32, ptr %33, align 4, !tbaa !25
  %36 = sext i32 %35 to i64
  %37 = getelementptr inbounds nuw i8, ptr %33, i64 32
  %38 = load i32, ptr %37, align 4, !tbaa !25
  %39 = sext i32 %38 to i64
  %40 = add nsw i64 %39, %36
  %41 = mul nsw i64 %40, 11585
  %42 = add nsw i64 %41, 8192
  %43 = ashr i64 %42, 14
  %44 = sub nsw i64 %36, %39
  %45 = mul nsw i64 %44, 11585
  %46 = add nsw i64 %45, 8192
  %47 = ashr i64 %46, 14
  %48 = getelementptr inbounds nuw i8, ptr %33, i64 16
  %49 = load i32, ptr %48, align 4, !tbaa !25
  %50 = sext i32 %49 to i64
  %51 = mul nsw i64 %50, 6270
  %52 = getelementptr inbounds nuw i8, ptr %33, i64 48
  %53 = load i32, ptr %52, align 4, !tbaa !25
  %54 = sext i32 %53 to i64
  %.neg.i = mul nsw i64 %54, -15137
  %55 = add nsw i64 %51, 8192
  %56 = add nsw i64 %55, %.neg.i
  %57 = ashr i64 %56, 14
  %58 = mul nsw i64 %50, 15137
  %59 = mul nsw i64 %54, 6270
  %60 = add nsw i64 %58, 8192
  %61 = add nsw i64 %60, %59
  %62 = ashr i64 %61, 14
  %63 = add nsw i64 %62, %43
  %64 = trunc i64 %63 to i32
  store i32 %64, ptr %34, align 16, !tbaa !25
  %65 = add nsw i64 %57, %47
  %66 = trunc i64 %65 to i32
  %67 = getelementptr inbounds nuw i8, ptr %34, i64 4
  store i32 %66, ptr %67, align 4, !tbaa !25
  %68 = sub nsw i64 %47, %57
  %69 = trunc i64 %68 to i32
  %70 = getelementptr inbounds nuw i8, ptr %34, i64 8
  store i32 %69, ptr %70, align 8, !tbaa !25
  %71 = sub nsw i64 %43, %62
  %72 = trunc i64 %71 to i32
  %73 = getelementptr inbounds nuw i8, ptr %34, i64 12
  store i32 %72, ptr %73, align 4, !tbaa !25
  %indvars.iv.next = add nuw nsw i64 %indvars.iv, 1
  %exitcond.not = icmp eq i64 %indvars.iv.next, 4
  br i1 %exitcond.not, label %74, label %.preheader45, !llvm.loop !29

74:                                               ; preds = %.preheader45
  tail call void @llvm.memset.p0.i64(ptr noundef nonnull align 4 dereferenceable(64) %2, i8 0, i64 64, i1 false)
  %75 = getelementptr inbounds nuw i8, ptr %6, i64 4
  %76 = getelementptr inbounds nuw i8, ptr %6, i64 8
  %77 = getelementptr inbounds nuw i8, ptr %6, i64 12
  br label %78

78:                                               ; preds = %74, %129
  %indvars.iv59 = phi i64 [ 0, %74 ], [ %indvars.iv.next60, %129 ]
  %.13748 = phi ptr [ %0, %74 ], [ %130, %129 ]
  %79 = getelementptr inbounds nuw i32, ptr %5, i64 %indvars.iv59
  %80 = load i32, ptr %79, align 4, !tbaa !25
  %81 = sext i32 %80 to i64
  %82 = getelementptr inbounds nuw i8, ptr %79, i64 32
  %83 = load i32, ptr %82, align 4, !tbaa !25
  %84 = sext i32 %83 to i64
  %85 = add nsw i64 %84, %81
  %86 = mul nsw i64 %85, 11585
  %87 = add nsw i64 %86, 8192
  %88 = ashr i64 %87, 14
  %89 = sub nsw i64 %81, %84
  %90 = mul nsw i64 %89, 11585
  %91 = add nsw i64 %90, 8192
  %92 = ashr i64 %91, 14
  %93 = getelementptr inbounds nuw i8, ptr %79, i64 16
  %94 = load i32, ptr %93, align 4, !tbaa !25
  %95 = sext i32 %94 to i64
  %96 = mul nsw i64 %95, 6270
  %97 = getelementptr inbounds nuw i8, ptr %79, i64 48
  %98 = load i32, ptr %97, align 4, !tbaa !25
  %99 = sext i32 %98 to i64
  %.neg.i43 = mul nsw i64 %99, -15137
  %100 = add nsw i64 %96, 8192
  %101 = add nsw i64 %100, %.neg.i43
  %102 = ashr i64 %101, 14
  %103 = mul nsw i64 %95, 15137
  %104 = mul nsw i64 %99, 6270
  %105 = add nsw i64 %103, 8192
  %106 = add nsw i64 %105, %104
  %107 = ashr i64 %106, 14
  %108 = add nsw i64 %107, %88
  %109 = trunc i64 %108 to i32
  store i32 %109, ptr %6, align 16, !tbaa !25
  %110 = add nsw i64 %102, %92
  %111 = trunc i64 %110 to i32
  store i32 %111, ptr %75, align 4, !tbaa !25
  %112 = sub nsw i64 %92, %102
  %113 = trunc i64 %112 to i32
  store i32 %113, ptr %76, align 8, !tbaa !25
  %114 = sub nsw i64 %88, %107
  %115 = trunc i64 %114 to i32
  store i32 %115, ptr %77, align 4, !tbaa !25
  br label %116

116:                                              ; preds = %78, %116
  %indvars.iv55 = phi i64 [ 0, %78 ], [ %indvars.iv.next56, %116 ]
  %117 = mul nuw nsw i64 %7, %indvars.iv55
  %118 = getelementptr inbounds nuw i16, ptr %.13748, i64 %117
  %119 = load i16, ptr %118, align 2, !tbaa !8
  %120 = zext i16 %119 to i32
  %121 = getelementptr inbounds nuw [4 x i32], ptr %6, i64 0, i64 %indvars.iv55
  %122 = load i32, ptr %121, align 4, !tbaa !25
  %123 = add i32 %122, 8
  %124 = ashr i32 %123, 4
  %125 = add nsw i32 %124, %120
  %126 = tail call i32 @llvm.smax.i32(i32 %125, i32 0)
  %127 = tail call i32 @llvm.umin.i32(i32 %126, i32 4095)
  %128 = trunc nuw nsw i32 %127 to i16
  store i16 %128, ptr %118, align 2, !tbaa !8
  %indvars.iv.next56 = add nuw nsw i64 %indvars.iv55, 1
  %exitcond58.not = icmp eq i64 %indvars.iv.next56, 4
  br i1 %exitcond58.not, label %129, label %116, !llvm.loop !30

129:                                              ; preds = %116
  %130 = getelementptr inbounds nuw i8, ptr %.13748, i64 2
  %indvars.iv.next60 = add nuw nsw i64 %indvars.iv59, 1
  %exitcond62.not = icmp eq i64 %indvars.iv.next60, 4
  br i1 %exitcond62.not, label %.loopexit, label %78, !llvm.loop !31

.loopexit:                                        ; preds = %129, %30
  call void @llvm.lifetime.end.p0(i64 16, ptr nonnull %6) #11
  call void @llvm.lifetime.end.p0(i64 64, ptr nonnull %5) #11
  ret void
}